; Function Attrs: mustprogress nofree nounwind willreturn memory(write, argmem: readwrite) uwtable
define noundef double @_ZNK8QuantLib15COSHestonEngine3varEd(ptr nocapture noundef nonnull readonly align 8 dereferenceable(408) %this, double noundef %t) local_unnamed_addr #12 align 2 {
entry:
  %sigma_.i = getelementptr inbounds nuw i8, ptr %this, i64 384
  %0 = load double, ptr %sigma_.i, align 8, !tbaa !77
  %mul.i = fmul double %0, %0
  %kappa_.i = getelementptr inbounds nuw i8, ptr %this, i64 368
  %1 = load double, ptr %kappa_.i, align 8, !tbaa !75
  %mul4.i = fmul double %1, %1
  %mul6.i = fmul double %1, %mul4.i
  %theta_.i = getelementptr inbounds nuw i8, ptr %this, i64 376
  %2 = load double, ptr %theta_.i, align 8, !tbaa !76
  %v0_.i = getelementptr inbounds nuw i8, ptr %this, i64 400
  %3 = load double, ptr %v0_.i, align 8, !tbaa !79
  %4 = tail call double @llvm.fmuladd.f64(double %3, double -2.000000e+00, double %2)
  %mul10.i = fmul double %1, 2.000000e+00
  %mul11.i = fmul double %t, %mul10.i
  %call.i = tail call double @exp(double noundef %mul11.i) #29, !tbaa !108
  %mul12.i = fmul double %mul6.i, 8.000000e+00
  %mul13.i = fmul double %t, %mul12.i
  %mul16.i = fmul double %mul4.i, 8.000000e+00
  %rho_.i = getelementptr inbounds nuw i8, ptr %this, i64 392
  %5 = load double, ptr %rho_.i, align 8, !tbaa !78
  %mul19.i = fmul double %0, %5
  %mul20.i = fmul double %t, %mul19.i
  %6 = tail call double @llvm.fmuladd.f64(double %mul20.i, double %2, double %2)
  %sub.i = fsub double %6, %3
  %7 = fneg double %sub.i
  %neg.i = fmul double %mul16.i, %7
  %8 = tail call double @llvm.fmuladd.f64(double %mul13.i, double %2, double %neg.i)
  %mul28.i = fmul double %3, 2.000000e+00
  %9 = tail call double @llvm.fmuladd.f64(double %2, double -5.000000e+00, double %mul28.i)
  %10 = tail call double @llvm.fmuladd.f64(double %mul.i, double %9, double %8)
  %mul33.i = fmul double %0, %mul10.i
  %mul35.i = fmul double %5, 8.000000e+00
  %mul39.i = fmul double %t, %0
  %mul41.i = fmul double %mul39.i, %2
  %11 = tail call double @llvm.fmuladd.f64(double %mul35.i, double %2, double %mul41.i)
  %neg46.i = fmul double %5, -4.000000e+00
  %12 = tail call double @llvm.fmuladd.f64(double %neg46.i, double %3, double %11)
  %13 = tail call double @llvm.fmuladd.f64(double %mul33.i, double %12, double %10)
  %mul48.i = fmul double %call.i, %13
  %14 = tail call double @llvm.fmuladd.f64(double %mul.i, double %4, double %mul48.i)
  %mul50.i = fmul double %t, %1
  %call51.i = tail call double @exp(double noundef %mul50.i) #29, !tbaa !108
  %mul52.i = fmul double %call51.i, 4.000000e+00
  %mul55.i = fmul double %mul4.i, 2.000000e+00
  %15 = tail call double @llvm.fmuladd.f64(double %mul19.i, double %t, double -1.000000e+00)
  %mul60.i = fmul double %mul55.i, %15
  %sub63.i = fsub double %2, %3
  %16 = fneg double %sub63.i
  %neg65.i = fmul double %mul60.i, %16
  %17 = tail call double @llvm.fmuladd.f64(double %mul.i, double %2, double %neg65.i)
  %mul68.i = fmul double %0, %1
  %mul76.i = fmul double %5, 2.000000e+00
  %18 = tail call double @llvm.fmuladd.f64(double %2, double -2.000000e+00, double %3)
  %mul80.i = fmul double %18, %mul76.i
  %19 = tail call double @llvm.fmuladd.f64(double %mul39.i, double %sub63.i, double %mul80.i)
  %20 = tail call double @llvm.fmuladd.f64(double %mul68.i, double %19, double %17)
  %21 = tail call double @llvm.fmuladd.f64(double %mul52.i, double %20, double %14)
  %call86.i = tail call double @exp(double noundef %mul11.i) #29, !tbaa !108
  %mul87.i = fmul double %call86.i, 8.000000e+00
  %mul88.i = fmul double %mul6.i, %mul87.i
  %div.i = fdiv double %21, %mul88.i
  ret double %div.i
}